ccollections
OrderedDict
p0
((lp1
(lp2
I0
a(dp3
S'raw_angle'
p4
I20
sS'target_orientaion'
p5
cnumpy.core.multiarray
scalar
p6
(cnumpy
dtype
p7
(S'f8'
p8
I0
I1
tp9
Rp10
(I3
S'<'
p11
NNNI-1
I-1
I0
tp12
bS'\xf6\xe6\xe2\xe3r\xf0s@'
p13
tp14
Rp15
sS'used_angle'
p16
F-19.99779975960666
sS'probe_time'
p17
cpandas.tslib
Timestamp
p18
(L1478100570144000000L
NNtp19
Rp20
sS'key_time'
p21
g18
(L1478100571517000000L
NNtp22
Rp23
sS'response_time'
p24
F1.373
sS'participant'
p25
V234
p26
sS'difficulty_level'
p27
I0
sS'target_time'
p28
g18
(L1478100567102000000L
NNtp29
Rp30
sS'trial'
p31
I0
sS'accuracy'
p32
I1
saatp33
Rp34
.